; Function Attrs: mustprogress nounwind uwtable
define internal void @"_ZN4absl12lts_2024072222internal_any_invocable23RemoteManagerNontrivialIZN17grpc_event_engine12experimental18ThreadyEventEngine7ConnectENS0_12AnyInvocableIFvNS0_8StatusOrISt10unique_ptrINS4_11EventEngine8EndpointESt14default_deleteISA_EEEEEEERKNS9_15ResolvedAddressERKNS4_14EndpointConfigENS4_15MemoryAllocatorENSt6chrono8durationIlSt5ratioILl1ELl1000000000EEEEE3$_0EEvNS1_14FunctionToCallEPNS1_15TypeErasedStateESW_"(i1 noundef zeroext %0, ptr noundef readonly captures(none) %1, ptr noundef writeonly captures(none) %2) #5 {
  %4 = load ptr, ptr %1, align 16, !tbaa !50
  br i1 %0, label %6, label %5

5:                                                ; preds = %3
  store ptr %4, ptr %2, align 16, !tbaa !50
  br label %12

6:                                                ; preds = %3
  %7 = icmp eq ptr %4, null
  br i1 %7, label %12, label %8

8:                                                ; preds = %6
  %9 = getelementptr inbounds nuw i8, ptr %4, i64 16
  %10 = getelementptr inbounds nuw i8, ptr %4, i64 32
  %11 = load ptr, ptr %10, align 16, !tbaa !74
  tail call void %11(i1 noundef zeroext true, ptr noundef nonnull align 16 dereferenceable(32) %9, ptr noundef nonnull align 16 dereferenceable(32) %9) #26
  tail call void @_ZdlPvm(ptr noundef nonnull %4, i64 noundef 48) #31
  br label %12

12:                                               ; preds = %6, %8, %5
  ret void
}